Certificate:
    Data:
        Version: 3 (0x2)
        Serial Number:
            f3:7e:58:83:d8:8e:f1:a4:08:c7:a3:f1:7d:ad:33:93
        Signature Algorithm: sha256WithRSAEncryption
        Issuer: CN=openvpn-ca
        Validity
            Not Before: Mar 13 10:05:57 2023 GMT
            Not After : Jun 15 10:05:57 2025 GMT
        Subject: CN=client1
        Subject Public Key Info:
            Public Key Algorithm: rsaEncryption
                Public-Key: (2048 bit)
                Modulus:
                    00:d7:db:b4:cf:59:9d:c8:68:3f:c1:de:ea:48:04:
                    6e:1d:da:95:e0:84:e8:3d:80:2c:22:0c:d4:52:82:
                    1b:50:25:de:06:ad:8f:29:de:41:5f:04:e7:fc:49:
                    bc:72:5f:9f:ba:d5:69:5b:f6:f4:02:0d:9f:d4:68:
                    43:72:2f:10:61:d3:6d:b7:0a:be:d1:00:91:22:26:
                    b3:d9:c4:32:6b:bd:4e:55:63:91:55:7f:0a:66:36:
                    f5:f7:84:1d:f4:f8:59:cb:32:23:95:43:82:82:7c:
                    1f:4d:ba:c0:fe:48:e5:11:87:83:b9:7d:69:39:79:
                    8f:0d:d4:f6:a3:c8:90:a8:da:5e:53:a2:78:94:16:
                    b8:81:25:81:44:0c:48:13:6b:94:03:2b:c7:c7:f1:
                    e0:c7:9d:53:9d:7e:9c:06:f4:9e:0e:c7:0c:dd:37:
                    ae:5b:42:7e:b8:3e:82:6c:a5:3e:89:80:22:e8:8b:
                    bc:2d:50:14:8d:21:a1:22:df:ca:b5:ec:f5:c9:c3:
                    61:5e:e2:ac:f8:84:de:e7:e8:8f:71:a2:bc:e7:d8:
                    e1:a8:76:5c:26:bf:43:59:05:56:c7:c9:01:c8:47:
                    ff:9e:32:d6:86:3a:7f:6e:54:a4:7c:2d:52:7d:30:
                    a4:90:f2:c9:60:6d:53:5d:f1:7b:dc:fa:c4:bf:f0:
                    97:df
                Exponent: 65537 (0x10001)
        X509v3 extensions:
            X509v3 Basic Constraints: 
                CA:FALSE
            X509v3 Subject Key Identifier: 
                1F:6E:B4:E0:25:58:F3:32:D7:84:FB:C7:06:AD:32:99:02:A5:41:63
            X509v3 Authority Key Identifier: 
                keyid:7F:7A:CF:BB:D0:27:01:16:D1:CD:70:69:6F:F7:A3:19:98:E5:14:83
                DirName:/CN=openvpn-ca
                serial:2F:56:C0:AE:DF:67:7C:D9:61:25:9B:D8:4A:7E:CD:38:3E:F2:88:41
            X509v3 Extended Key Usage: 
                TLS Web Client Authentication
            X509v3 Key Usage: 
                Digital Signature
    Signature Algorithm: sha256WithRSAEncryption
    Signature Value:
        43:14:df:3d:14:70:c4:e6:1b:d8:c0:2a:aa:d5:f2:ef:da:a4:
        bd:8e:77:79:12:9a:70:67:ba:db:ca:24:6d:31:01:90:55:31:
        88:83:76:62:38:d9:30:57:4a:c6:42:98:c2:6c:46:e6:77:86:
        75:20:04:b0:95:78:96:22:8c:18:03:8c:e7:1b:b5:19:84:1c:
        36:3d:8c:72:b1:91:ec:ce:59:5e:ea:67:59:db:26:19:67:ef:
        90:fd:db:4a:8f:73:00:ab:23:75:99:a1:e8:68:42:ae:ed:5d:
        67:6f:72:9e:02:cc:6c:f6:ef:ac:9e:18:65:9b:ed:d3:18:11:
        7d:2a:4e:c4:1b:5a:f4:21:6a:98:c3:1f:31:b4:bd:2b:bb:e8:
        6e:95:34:96:22:55:50:80:f1:44:90:c0:36:8f:e2:10:d6:f0:
        02:a9:8b:53:21:2a:09:8f:7c:49:7a:df:11:4c:59:4e:b0:4d:
        e7:a2:67:90:3b:49:2f:a1:a4:38:b6:3a:95:f6:0a:08:66:76:
        45:77:76:0c:86:78:e6:08:dd:ca:ed:dc:73:ea:6b:76:68:64:
        fa:e8:ac:7b:64:0e:42:92:c8:e3:87:61:be:c3:bc:5f:92:a4:
        46:55:1b:f6:c2:0c:27:96:da:73:a4:85:e8:55:71:e6:5f:e8:
        99:c2:c3:e0
-----BEGIN CERTIFICATE-----
MIIDVDCCAjygAwIBAgIRAPN+WIPYjvGkCMej8X2tM5MwDQYJKoZIhvcNAQELBQAw
FTETMBEGA1UEAwwKb3BlbnZwbi1jYTAeFw0yMzAzMTMxMDA1NTdaFw0yNTA2MTUx
MDA1NTdaMBIxEDAOBgNVBAMMB2NsaWVudDEwggEiMA0GCSqGSIb3DQEBAQUAA4IB
DwAwggEKAoIBAQDX27TPWZ3IaD/B3upIBG4d2pXghOg9gCwiDNRSghtQJd4GrY8p
3kFfBOf8SbxyX5+61Wlb9vQCDZ/UaENyLxBh0223Cr7RAJEiJrPZxDJrvU5VY5FV
fwpmNvX3hB30+FnLMiOVQ4KCfB9NusD+SOURh4O5fWk5eY8N1PajyJCo2l5ToniU
FriBJYFEDEgTa5QDK8fH8eDHnVOdfpwG9J4OxwzdN65bQn64PoJspT6JgCLoi7wt
UBSNIaEi38q17PXJw2Fe4qz4hN7n6I9xorzn2OGodlwmv0NZBVbHyQHIR/+eMtaG
On9uVKR8LVJ9MKSQ8slgbVNd8Xvc+sS/8JffAgMBAAGjgaEwgZ4wCQYDVR0TBAIw
ADAdBgNVHQ4EFgQUH2604CVY8zLXhPvHBq0ymQKlQWMwUAYDVR0jBEkwR4AUf3rP
u9AnARbRzXBpb/ejGZjlFIOhGaQXMBUxEzARBgNVBAMMCm9wZW52cG4tY2GCFC9W
wK7fZ3zZYSWb2Ep+zTg+8ohBMBMGA1UdJQQMMAoGCCsGAQUFBwMCMAsGA1UdDwQE
AwIHgDANBgkqhkiG9w0BAQsFAAOCAQEAQxTfPRRwxOYb2MAqqtXy79qkvY53eRKa
cGe628okbTEBkFUxiIN2YjjZMFdKxkKYwmxG5neGdSAEsJV4liKMGAOM5xu1GYQc
Nj2McrGR7M5ZXupnWdsmGWfvkP3bSo9zAKsjdZmh6GhCru1dZ29yngLMbPbvrJ4Y
ZZvt0xgRfSpOxBta9CFqmMMfMbS9K7vobpU0liJVUIDxRJDANo/iENbwAqmLUyEq
CY98SXrfEUxZTrBN56JnkDtJL6GkOLY6lfYKCGZ2RXd2DIZ45gjdyu3cc+prdmhk
+uise2QOQpLI44dhvsO8X5KkRlUb9sIMJ5bac6SF6FVx5l/omcLD4A==
-----END CERTIFICATE-----
