Certificate:
    Data:
        Version: 3 (0x2)
        Serial Number:
            a7:be:c7:38:d0:7d:0b:2d:a1:ac:03:0e:db:90:19:c3
        Signature Algorithm: sha256WithRSAEncryption
        Issuer: CN=openvpn-ca
        Validity
            Not Before: Mar 13 09:57:02 2023 GMT
            Not After : Jun 15 09:57:02 2025 GMT
        Subject: CN=server
        Subject Public Key Info:
            Public Key Algorithm: rsaEncryption
                Public-Key: (2048 bit)
                Modulus:
                    00:e7:26:90:db:03:e9:ec:64:47:bd:a8:4a:b2:4f:
                    87:e2:e0:14:ea:4d:62:f9:eb:11:b8:ea:70:48:0b:
                    c8:7c:ad:ad:ef:a7:32:69:1c:47:49:e2:b8:5d:a1:
                    dc:d6:a0:89:bd:33:93:d0:cb:f6:ca:d6:f7:c9:69:
                    a1:20:a5:90:b4:ec:0b:40:3d:f6:fc:0f:c5:9c:fa:
                    86:ad:70:e0:bb:62:87:95:74:82:04:44:c7:53:5f:
                    bd:43:66:58:ba:50:69:0b:b3:30:0c:aa:9b:a6:25:
                    7d:5e:d7:2f:56:ea:d1:88:39:cf:91:96:6d:41:4b:
                    ed:08:00:d5:71:62:fe:7e:7a:33:7b:48:6c:5f:ab:
                    6c:67:50:b0:3c:71:2f:4d:56:57:b4:0d:71:94:8d:
                    63:c6:c6:5a:5e:14:c1:46:80:fd:84:e7:3f:73:fe:
                    50:28:7e:a6:ee:ce:48:c7:7e:1e:7f:b9:25:5b:aa:
                    39:85:f1:9f:bd:b6:e4:40:bf:2c:f0:33:d3:8d:a3:
                    6d:e0:c5:8c:ca:92:e8:8d:9c:fe:f8:9a:07:4f:f6:
                    c5:f2:eb:0e:13:96:54:48:d6:1f:d1:01:a6:d3:0f:
                    5c:85:7c:46:39:a0:3a:af:68:54:92:49:6f:10:6a:
                    06:7f:cb:e2:61:47:e7:cd:26:a4:3c:e5:83:8f:b9:
                    ee:11
                Exponent: 65537 (0x10001)
        X509v3 extensions:
            X509v3 Basic Constraints: 
                CA:FALSE
            X509v3 Subject Key Identifier: 
                99:82:58:2B:26:4D:33:01:A0:DE:07:43:7D:33:54:85:D3:6D:A9:0A
            X509v3 Authority Key Identifier: 
                keyid:7F:7A:CF:BB:D0:27:01:16:D1:CD:70:69:6F:F7:A3:19:98:E5:14:83
                DirName:/CN=openvpn-ca
                serial:2F:56:C0:AE:DF:67:7C:D9:61:25:9B:D8:4A:7E:CD:38:3E:F2:88:41
            X509v3 Extended Key Usage: 
                TLS Web Server Authentication
            X509v3 Key Usage: 
                Digital Signature, Key Encipherment
            X509v3 Subject Alternative Name: 
                DNS:server
    Signature Algorithm: sha256WithRSAEncryption
    Signature Value:
        78:11:fe:64:c2:ce:3b:eb:3e:c6:81:ab:92:5b:6a:96:be:50:
        02:ee:5e:cd:a8:85:4a:5b:b2:b0:bd:46:ac:cd:67:ea:23:84:
        e9:e0:e3:3b:57:d4:48:ef:e8:ea:f0:3f:1e:e8:02:ce:26:81:
        63:d0:00:13:a3:0d:cd:e7:bc:72:8b:d4:03:f9:09:12:22:cb:
        7c:36:6b:f7:d5:77:ab:29:e1:6d:61:3c:d5:8a:5b:50:6b:d5:
        a6:4f:e9:9d:bc:a6:ea:95:13:e2:5f:2f:d1:9c:1d:5a:b8:5f:
        5f:fe:21:df:02:b1:c4:5a:cd:db:06:ba:83:a6:f0:d9:3e:f0:
        cc:ca:95:7a:2b:5c:3b:dd:16:92:71:1f:c9:5f:e5:ab:01:3a:
        18:9c:27:24:29:5c:02:9e:71:9c:4f:c3:f3:b9:bb:79:30:89:
        ef:3f:6d:a2:1d:9c:45:14:a5:b4:57:06:47:30:19:8f:6a:41:
        af:7c:7c:65:05:0d:f8:17:a5:7b:30:47:5e:be:00:9c:be:45:
        e2:d8:42:13:a7:17:af:d9:48:09:6a:6e:5c:f0:01:e8:99:82:
        ac:d6:3b:0c:00:00:ab:0e:8d:23:7b:32:80:a7:c0:b5:dc:d6:
        e9:8d:e4:79:af:7a:35:56:5d:e2:cc:c7:63:c2:ea:c9:ec:d4:
        99:85:b7:ee
-----BEGIN CERTIFICATE-----
MIIDZjCCAk6gAwIBAgIRAKe+xzjQfQstoawDDtuQGcMwDQYJKoZIhvcNAQELBQAw
FTETMBEGA1UEAwwKb3BlbnZwbi1jYTAeFw0yMzAzMTMwOTU3MDJaFw0yNTA2MTUw
OTU3MDJaMBExDzANBgNVBAMMBnNlcnZlcjCCASIwDQYJKoZIhvcNAQEBBQADggEP
ADCCAQoCggEBAOcmkNsD6exkR72oSrJPh+LgFOpNYvnrEbjqcEgLyHytre+nMmkc
R0niuF2h3Nagib0zk9DL9srW98lpoSClkLTsC0A99vwPxZz6hq1w4Ltih5V0ggRE
x1NfvUNmWLpQaQuzMAyqm6YlfV7XL1bq0Yg5z5GWbUFL7QgA1XFi/n56M3tIbF+r
bGdQsDxxL01WV7QNcZSNY8bGWl4UwUaA/YTnP3P+UCh+pu7OSMd+Hn+5JVuqOYXx
n7225EC/LPAz042jbeDFjMqS6I2c/viaB0/2xfLrDhOWVEjWH9EBptMPXIV8Rjmg
Oq9oVJJJbxBqBn/L4mFH580mpDzlg4+57hECAwEAAaOBtDCBsTAJBgNVHRMEAjAA
MB0GA1UdDgQWBBSZglgrJk0zAaDeB0N9M1SF022pCjBQBgNVHSMESTBHgBR/es+7
0CcBFtHNcGlv96MZmOUUg6EZpBcwFTETMBEGA1UEAwwKb3BlbnZwbi1jYYIUL1bA
rt9nfNlhJZvYSn7NOD7yiEEwEwYDVR0lBAwwCgYIKwYBBQUHAwEwCwYDVR0PBAQD
AgWgMBEGA1UdEQQKMAiCBnNlcnZlcjANBgkqhkiG9w0BAQsFAAOCAQEAeBH+ZMLO
O+s+xoGrkltqlr5QAu5ezaiFSluysL1GrM1n6iOE6eDjO1fUSO/o6vA/HugCziaB
Y9AAE6MNzee8covUA/kJEiLLfDZr99V3qynhbWE81YpbUGvVpk/pnbym6pUT4l8v
0ZwdWrhfX/4h3wKxxFrN2wa6g6bw2T7wzMqVeitcO90WknEfyV/lqwE6GJwnJClc
Ap5xnE/D87m7eTCJ7z9toh2cRRSltFcGRzAZj2pBr3x8ZQUN+BelezBHXr4AnL5F
4thCE6cXr9lICWpuXPAB6JmCrNY7DAAAqw6NI3sygKfAtdzW6Y3kea96NVZd4szH
Y8LqyezUmYW37g==
-----END CERTIFICATE-----
